#include <math.h>
#include <stdio.h>
#include <stdlib.h>
#include <string.h>
#include <iostream>
using namespace std;

//**************************
//*?? ????????  **
//*?? ??? 1100016602 ** 
//*?? 2011?10?21?    **
//************************** 


int main() 
{
    int a[100002] , n , i , k , p , j ;       //????a???????100000????????????n,k?????i,j?????????p 
    cin >> n ;                                //??n 
    for (i = 1 ; i <= n ; i ++ )              //?????? 
        cin >> a[i] ; 
    cin >> k ;                                //??k 
    for (i = 1 , p = n ; i <= p ; i ++ )      //?????????????k,???????????p? 
    {
        if (k == a[i])                        //?????a[i]?k 
        {
              p -- ;                          //?????1 
              for (j = i ; j <= p ; j ++ )    //?????????????????j??i?p 
                  a[j] = a[j + 1] ;           //????????????????? 
              i -- ;                          //????????????????????????????????i-1 
                  }
                  }
    for (i = 1 , p -- ; i <= p ; i ++ )       //???p-1???????????????? 
        cout << a[i] << ' ' ; 
    cout << a[i] << endl ;                    //???????????????? 
    return 0 ; 
}
